target datalayout = "e-m:e-p270:32:32-p271:32:32-p272:64:64-i64:64-i128:128-f80:128-n8:16:32:64-S128"
target triple = "x86_64-pc-linux-gnu"

%struct.dt_imageio_png_t = type { i32, i32, i32, i32, i32, i32, i32, ptr, ptr, ptr }
%struct.__jmp_buf_tag = type { [8 x i64], i32, %struct.__sigset_t }
%struct.__sigset_t = type { [16 x i64] }

@.str = private unnamed_addr constant [3 x i8] c"rb\00", align 1
@.str.1 = private unnamed_addr constant [7 x i8] c"1.6.37\00", align 1
@.str.2 = private unnamed_addr constant [5 x i8] c"cICP\00", align 1

; Function Attrs: nounwind uwtable
define i32 @dt_imageio_png_read_header(ptr noundef %0, ptr noundef %1) #0 {
  %3 = alloca i32, align 4
  %4 = alloca ptr, align 8
  %5 = alloca ptr, align 8
  %6 = alloca [8 x i8], align 1
  %7 = alloca i64, align 8
  %8 = alloca i32, align 4
  store ptr %0, ptr %4, align 8, !tbaa !6
  store ptr %1, ptr %5, align 8, !tbaa !11
  %9 = load ptr, ptr %4, align 8, !tbaa !6
  %10 = call noalias ptr @fopen(ptr noundef %9, ptr noundef @.str)
  %11 = load ptr, ptr %5, align 8, !tbaa !11
  %12 = getelementptr inbounds nuw %struct.dt_imageio_png_t, ptr %11, i32 0, i32 7
  store ptr %10, ptr %12, align 8, !tbaa !13
  %13 = load ptr, ptr %5, align 8, !tbaa !11
  %14 = getelementptr inbounds nuw %struct.dt_imageio_png_t, ptr %13, i32 0, i32 7
  %15 = load ptr, ptr %14, align 8, !tbaa !13
  %16 = icmp ne ptr %15, null
  br i1 %16, label %18, label %17

17:                                               ; preds = %2
  store i32 0, ptr %3, align 4
  br label %189

18:                                               ; preds = %2
  call void @llvm.lifetime.start.p0(i64 8, ptr %6) #10
  call void @llvm.lifetime.start.p0(i64 8, ptr %7) #10
  %19 = getelementptr inbounds [8 x i8], ptr %6, i64 0, i64 0
  %20 = load ptr, ptr %5, align 8, !tbaa !11
  %21 = getelementptr inbounds nuw %struct.dt_imageio_png_t, ptr %20, i32 0, i32 7
  %22 = load ptr, ptr %21, align 8, !tbaa !13
  %23 = call i64 @fread(ptr noundef %19, i64 noundef 1, i64 noundef 8, ptr noundef %22)
  store i64 %23, ptr %7, align 8, !tbaa !19
  %24 = load i64, ptr %7, align 8, !tbaa !19
  %25 = icmp ne i64 %24, 8
  br i1 %25, label %30, label %26

26:                                               ; preds = %18
  %27 = getelementptr inbounds [8 x i8], ptr %6, i64 0, i64 0
  %28 = call i32 @png_sig_cmp(ptr noundef %27, i64 noundef 0, i64 noundef 8)
  %29 = icmp ne i32 %28, 0
  br i1 %29, label %30, label %35

30:                                               ; preds = %26, %18
  %31 = load ptr, ptr %5, align 8, !tbaa !11
  %32 = getelementptr inbounds nuw %struct.dt_imageio_png_t, ptr %31, i32 0, i32 7
  %33 = load ptr, ptr %32, align 8, !tbaa !13
  %34 = call i32 @fclose(ptr noundef %33)
  store i32 0, ptr %3, align 4
  store i32 1, ptr %8, align 4
  br label %188

35:                                               ; preds = %26
  %36 = call noalias ptr @png_create_read_struct(ptr noundef @.str.1, ptr noundef null, ptr noundef null, ptr noundef null)
  %37 = load ptr, ptr %5, align 8, !tbaa !11
  %38 = getelementptr inbounds nuw %struct.dt_imageio_png_t, ptr %37, i32 0, i32 8
  store ptr %36, ptr %38, align 8, !tbaa !21
  %39 = load ptr, ptr %5, align 8, !tbaa !11
  %40 = getelementptr inbounds nuw %struct.dt_imageio_png_t, ptr %39, i32 0, i32 8
  %41 = load ptr, ptr %40, align 8, !tbaa !21
  %42 = icmp ne ptr %41, null
  br i1 %42, label %48, label %43

43:                                               ; preds = %35
  %44 = load ptr, ptr %5, align 8, !tbaa !11
  %45 = getelementptr inbounds nuw %struct.dt_imageio_png_t, ptr %44, i32 0, i32 7
  %46 = load ptr, ptr %45, align 8, !tbaa !13
  %47 = call i32 @fclose(ptr noundef %46)
  store i32 0, ptr %3, align 4
  store i32 1, ptr %8, align 4
  br label %188

48:                                               ; preds = %35
  %49 = load ptr, ptr %5, align 8, !tbaa !11
  %50 = getelementptr inbounds nuw %struct.dt_imageio_png_t, ptr %49, i32 0, i32 8
  %51 = load ptr, ptr %50, align 8, !tbaa !21
  call void @png_set_keep_unknown_chunks(ptr noundef %51, i32 noundef 3, ptr noundef @.str.2, i32 noundef 1)
  %52 = load ptr, ptr %5, align 8, !tbaa !11
  %53 = getelementptr inbounds nuw %struct.dt_imageio_png_t, ptr %52, i32 0, i32 8
  %54 = load ptr, ptr %53, align 8, !tbaa !21
  %55 = call noalias ptr @png_create_info_struct(ptr noundef %54)
  %56 = load ptr, ptr %5, align 8, !tbaa !11
  %57 = getelementptr inbounds nuw %struct.dt_imageio_png_t, ptr %56, i32 0, i32 9
  store ptr %55, ptr %57, align 8, !tbaa !22
  %58 = load ptr, ptr %5, align 8, !tbaa !11
  %59 = getelementptr inbounds nuw %struct.dt_imageio_png_t, ptr %58, i32 0, i32 9
  %60 = load ptr, ptr %59, align 8, !tbaa !22
  %61 = icmp ne ptr %60, null
  br i1 %61, label %69, label %62

62:                                               ; preds = %48
  %63 = load ptr, ptr %5, align 8, !tbaa !11
  %64 = getelementptr inbounds nuw %struct.dt_imageio_png_t, ptr %63, i32 0, i32 7
  %65 = load ptr, ptr %64, align 8, !tbaa !13
  %66 = call i32 @fclose(ptr noundef %65)
  %67 = load ptr, ptr %5, align 8, !tbaa !11
  %68 = getelementptr inbounds nuw %struct.dt_imageio_png_t, ptr %67, i32 0, i32 8
  call void @png_destroy_read_struct(ptr noundef %68, ptr noundef null, ptr noundef null)
  store i32 0, ptr %3, align 4
  store i32 1, ptr %8, align 4
  br label %188

69:                                               ; preds = %48
  %70 = load ptr, ptr %5, align 8, !tbaa !11
  %71 = getelementptr inbounds nuw %struct.dt_imageio_png_t, ptr %70, i32 0, i32 8
  %72 = load ptr, ptr %71, align 8, !tbaa !21
  %73 = call ptr @png_set_longjmp_fn(ptr noundef %72, ptr noundef @longjmp, i64 noundef 200)
  %74 = getelementptr inbounds [1 x %struct.__jmp_buf_tag], ptr %73, i64 0, i64 0
  %75 = call i32 @_setjmp(ptr noundef %74) #11
  %76 = icmp ne i32 %75, 0
  br i1 %76, label %77, label %86

77:                                               ; preds = %69
  %78 = load ptr, ptr %5, align 8, !tbaa !11
  %79 = getelementptr inbounds nuw %struct.dt_imageio_png_t, ptr %78, i32 0, i32 7
  %80 = load ptr, ptr %79, align 8, !tbaa !13
  %81 = call i32 @fclose(ptr noundef %80)
  %82 = load ptr, ptr %5, align 8, !tbaa !11
  %83 = getelementptr inbounds nuw %struct.dt_imageio_png_t, ptr %82, i32 0, i32 8
  %84 = load ptr, ptr %5, align 8, !tbaa !11
  %85 = getelementptr inbounds nuw %struct.dt_imageio_png_t, ptr %84, i32 0, i32 9
  call void @png_destroy_read_struct(ptr noundef %83, ptr noundef %85, ptr noundef null)
  store i32 0, ptr %3, align 4
  store i32 1, ptr %8, align 4
  br label %188

86:                                               ; preds = %69
  %87 = load ptr, ptr %5, align 8, !tbaa !11
  %88 = getelementptr inbounds nuw %struct.dt_imageio_png_t, ptr %87, i32 0, i32 8
  %89 = load ptr, ptr %88, align 8, !tbaa !21
  %90 = load ptr, ptr %5, align 8, !tbaa !11
  %91 = getelementptr inbounds nuw %struct.dt_imageio_png_t, ptr %90, i32 0, i32 7
  %92 = load ptr, ptr %91, align 8, !tbaa !13
  call void @png_init_io(ptr noundef %89, ptr noundef %92)
  %93 = load ptr, ptr %5, align 8, !tbaa !11
  %94 = getelementptr inbounds nuw %struct.dt_imageio_png_t, ptr %93, i32 0, i32 8
  %95 = load ptr, ptr %94, align 8, !tbaa !21
  call void @png_set_sig_bytes(ptr noundef %95, i32 noundef 8)
  %96 = load ptr, ptr %5, align 8, !tbaa !11
  %97 = getelementptr inbounds nuw %struct.dt_imageio_png_t, ptr %96, i32 0, i32 8
  %98 = load ptr, ptr %97, align 8, !tbaa !21
  %99 = load ptr, ptr %5, align 8, !tbaa !11
  %100 = getelementptr inbounds nuw %struct.dt_imageio_png_t, ptr %99, i32 0, i32 9
  %101 = load ptr, ptr %100, align 8, !tbaa !22
  call void @png_read_info(ptr noundef %98, ptr noundef %101)
  %102 = load ptr, ptr %5, align 8, !tbaa !11
  %103 = getelementptr inbounds nuw %struct.dt_imageio_png_t, ptr %102, i32 0, i32 8
  %104 = load ptr, ptr %103, align 8, !tbaa !21
  %105 = load ptr, ptr %5, align 8, !tbaa !11
  %106 = getelementptr inbounds nuw %struct.dt_imageio_png_t, ptr %105, i32 0, i32 9
  %107 = load ptr, ptr %106, align 8, !tbaa !22
  %108 = call zeroext i8 @png_get_bit_depth(ptr noundef %104, ptr noundef %107)
  %109 = zext i8 %108 to i32
  %110 = load ptr, ptr %5, align 8, !tbaa !11
  %111 = getelementptr inbounds nuw %struct.dt_imageio_png_t, ptr %110, i32 0, i32 5
  store i32 %109, ptr %111, align 4, !tbaa !23
  %112 = load ptr, ptr %5, align 8, !tbaa !11
  %113 = getelementptr inbounds nuw %struct.dt_imageio_png_t, ptr %112, i32 0, i32 8
  %114 = load ptr, ptr %113, align 8, !tbaa !21
  %115 = load ptr, ptr %5, align 8, !tbaa !11
  %116 = getelementptr inbounds nuw %struct.dt_imageio_png_t, ptr %115, i32 0, i32 9
  %117 = load ptr, ptr %116, align 8, !tbaa !22
  %118 = call zeroext i8 @png_get_color_type(ptr noundef %114, ptr noundef %117)
  %119 = zext i8 %118 to i32
  %120 = load ptr, ptr %5, align 8, !tbaa !11
  %121 = getelementptr inbounds nuw %struct.dt_imageio_png_t, ptr %120, i32 0, i32 4
  store i32 %119, ptr %121, align 8, !tbaa !24
  %122 = load ptr, ptr %5, align 8, !tbaa !11
  %123 = getelementptr inbounds nuw %struct.dt_imageio_png_t, ptr %122, i32 0, i32 4
  %124 = load i32, ptr %123, align 8, !tbaa !24
  %125 = icmp eq i32 %124, 3
  br i1 %125, label %126, label %130

126:                                              ; preds = %86
  %127 = load ptr, ptr %5, align 8, !tbaa !11
  %128 = getelementptr inbounds nuw %struct.dt_imageio_png_t, ptr %127, i32 0, i32 8
  %129 = load ptr, ptr %128, align 8, !tbaa !21
  call void @png_set_palette_to_rgb(ptr noundef %129)
  br label %130

130:                                              ; preds = %126, %86
  %131 = load ptr, ptr %5, align 8, !tbaa !11
  %132 = getelementptr inbounds nuw %struct.dt_imageio_png_t, ptr %131, i32 0, i32 4
  %133 = load i32, ptr %132, align 8, !tbaa !24
  %134 = icmp eq i32 %133, 0
  br i1 %134, label %135, label %146

135:                                              ; preds = %130
  %136 = load ptr, ptr %5, align 8, !tbaa !11
  %137 = getelementptr inbounds nuw %struct.dt_imageio_png_t, ptr %136, i32 0, i32 5
  %138 = load i32, ptr %137, align 4, !tbaa !23
  %139 = icmp slt i32 %138, 8
  br i1 %139, label %140, label %146

140:                                              ; preds = %135
  %141 = load ptr, ptr %5, align 8, !tbaa !11
  %142 = getelementptr inbounds nuw %struct.dt_imageio_png_t, ptr %141, i32 0, i32 8
  %143 = load ptr, ptr %142, align 8, !tbaa !21
  call void @png_set_expand_gray_1_2_4_to_8(ptr noundef %143)
  %144 = load ptr, ptr %5, align 8, !tbaa !11
  %145 = getelementptr inbounds nuw %struct.dt_imageio_png_t, ptr %144, i32 0, i32 5
  store i32 8, ptr %145, align 4, !tbaa !23
  br label %146

146:                                              ; preds = %140, %135, %130
  %147 = load ptr, ptr %5, align 8, !tbaa !11
  %148 = getelementptr inbounds nuw %struct.dt_imageio_png_t, ptr %147, i32 0, i32 8
  %149 = load ptr, ptr %148, align 8, !tbaa !21
  call void @png_set_strip_alpha(ptr noundef %149)
  %150 = load ptr, ptr %5, align 8, !tbaa !11
  %151 = getelementptr inbounds nuw %struct.dt_imageio_png_t, ptr %150, i32 0, i32 4
  %152 = load i32, ptr %151, align 8, !tbaa !24
  %153 = icmp eq i32 %152, 0
  br i1 %153, label %159, label %154

154:                                              ; preds = %146
  %155 = load ptr, ptr %5, align 8, !tbaa !11
  %156 = getelementptr inbounds nuw %struct.dt_imageio_png_t, ptr %155, i32 0, i32 4
  %157 = load i32, ptr %156, align 8, !tbaa !24
  %158 = icmp eq i32 %157, 4
  br i1 %158, label %159, label %163

159:                                              ; preds = %154, %146
  %160 = load ptr, ptr %5, align 8, !tbaa !11
  %161 = getelementptr inbounds nuw %struct.dt_imageio_png_t, ptr %160, i32 0, i32 8
  %162 = load ptr, ptr %161, align 8, !tbaa !21
  call void @png_set_gray_to_rgb(ptr noundef %162)
  br label %163

163:                                              ; preds = %159, %154
  %164 = load ptr, ptr %5, align 8, !tbaa !11
  %165 = getelementptr inbounds nuw %struct.dt_imageio_png_t, ptr %164, i32 0, i32 8
  %166 = load ptr, ptr %165, align 8, !tbaa !21
  %167 = load ptr, ptr %5, align 8, !tbaa !11
  %168 = getelementptr inbounds nuw %struct.dt_imageio_png_t, ptr %167, i32 0, i32 9
  %169 = load ptr, ptr %168, align 8, !tbaa !22
  call void @png_read_update_info(ptr noundef %166, ptr noundef %169)
  %170 = load ptr, ptr %5, align 8, !tbaa !11
  %171 = getelementptr inbounds nuw %struct.dt_imageio_png_t, ptr %170, i32 0, i32 8
  %172 = load ptr, ptr %171, align 8, !tbaa !21
  %173 = load ptr, ptr %5, align 8, !tbaa !11
  %174 = getelementptr inbounds nuw %struct.dt_imageio_png_t, ptr %173, i32 0, i32 9
  %175 = load ptr, ptr %174, align 8, !tbaa !22
  %176 = call i32 @png_get_image_width(ptr noundef %172, ptr noundef %175)
  %177 = load ptr, ptr %5, align 8, !tbaa !11
  %178 = getelementptr inbounds nuw %struct.dt_imageio_png_t, ptr %177, i32 0, i32 2
  store i32 %176, ptr %178, align 8, !tbaa !25
  %179 = load ptr, ptr %5, align 8, !tbaa !11
  %180 = getelementptr inbounds nuw %struct.dt_imageio_png_t, ptr %179, i32 0, i32 8
  %181 = load ptr, ptr %180, align 8, !tbaa !21
  %182 = load ptr, ptr %5, align 8, !tbaa !11
  %183 = getelementptr inbounds nuw %struct.dt_imageio_png_t, ptr %182, i32 0, i32 9
  %184 = load ptr, ptr %183, align 8, !tbaa !22
  %185 = call i32 @png_get_image_height(ptr noundef %181, ptr noundef %184)
  %186 = load ptr, ptr %5, align 8, !tbaa !11
  %187 = getelementptr inbounds nuw %struct.dt_imageio_png_t, ptr %186, i32 0, i32 3
  store i32 %185, ptr %187, align 4, !tbaa !26
  store i32 1, ptr %3, align 4
  store i32 1, ptr %8, align 4
  br label %188

188:                                              ; preds = %163, %77, %62, %43, %30
  call void @llvm.lifetime.end.p0(i64 8, ptr %7) #10
  call void @llvm.lifetime.end.p0(i64 8, ptr %6) #10
  br label %189

189:                                              ; preds = %188, %17
  %190 = load i32, ptr %3, align 4
  ret i32 %190
}