; Function Attrs: nounwind uwtable
define range(i32 0, 2) i32 @dt_imageio_png_read_header(ptr noundef readonly captures(none) %0, ptr noundef initializes((32, 40)) %1) local_unnamed_addr #0 {
  %3 = alloca [8 x i8], align 1
  %4 = call noalias ptr @fopen(ptr noundef %0, ptr noundef nonnull @.str)
  %5 = getelementptr inbounds nuw i8, ptr %1, i64 32
  store ptr %4, ptr %5, align 8, !tbaa !6
  %.not = icmp eq ptr %4, null
  br i1 %.not, label %77, label %6

6:                                                ; preds = %2
  call void @llvm.lifetime.start.p0(i64 8, ptr nonnull %3) #11
  %7 = call i64 @fread(ptr noundef nonnull %3, i64 noundef 1, i64 noundef 8, ptr noundef nonnull %4)
  %.not50 = icmp eq i64 %7, 8
  br i1 %.not50, label %8, label %10

8:                                                ; preds = %6
  %9 = call i32 @png_sig_cmp(ptr noundef nonnull %3, i64 noundef 0, i64 noundef 8) #11
  %.not51 = icmp eq i32 %9, 0
  br i1 %.not51, label %13, label %10

10:                                               ; preds = %8, %6
  %11 = load ptr, ptr %5, align 8, !tbaa !6
  %12 = call i32 @fclose(ptr noundef %11)
  br label %76

13:                                               ; preds = %8
  %14 = call noalias ptr @png_create_read_struct(ptr noundef nonnull @.str.1, ptr noundef null, ptr noundef null, ptr noundef null) #11
  %15 = getelementptr inbounds nuw i8, ptr %1, i64 40
  store ptr %14, ptr %15, align 8, !tbaa !15
  %.not52 = icmp eq ptr %14, null
  br i1 %.not52, label %16, label %19

16:                                               ; preds = %13
  %17 = load ptr, ptr %5, align 8, !tbaa !6
  %18 = call i32 @fclose(ptr noundef %17)
  br label %76

19:                                               ; preds = %13
  call void @png_set_keep_unknown_chunks(ptr noundef nonnull %14, i32 noundef 3, ptr noundef nonnull @.str.2, i32 noundef 1) #11
  %20 = load ptr, ptr %15, align 8, !tbaa !15
  %21 = call noalias ptr @png_create_info_struct(ptr noundef %20) #11
  %22 = getelementptr inbounds nuw i8, ptr %1, i64 48
  store ptr %21, ptr %22, align 8, !tbaa !16
  %.not53 = icmp eq ptr %21, null
  br i1 %.not53, label %23, label %26

23:                                               ; preds = %19
  %24 = load ptr, ptr %5, align 8, !tbaa !6
  %25 = call i32 @fclose(ptr noundef %24)
  call void @png_destroy_read_struct(ptr noundef nonnull %15, ptr noundef null, ptr noundef null) #11
  br label %76

26:                                               ; preds = %19
  %27 = load ptr, ptr %15, align 8, !tbaa !15
  %28 = call ptr @png_set_longjmp_fn(ptr noundef %27, ptr noundef nonnull @longjmp, i64 noundef 200) #11
  %29 = call i32 @_setjmp(ptr noundef %28) #12
  %.not54 = icmp eq i32 %29, 0
  br i1 %.not54, label %33, label %30

30:                                               ; preds = %26
  %31 = load ptr, ptr %5, align 8, !tbaa !6
  %32 = call i32 @fclose(ptr noundef %31)
  call void @png_destroy_read_struct(ptr noundef nonnull %15, ptr noundef nonnull %22, ptr noundef null) #11
  br label %76

33:                                               ; preds = %26
  %34 = load ptr, ptr %15, align 8, !tbaa !15
  %35 = load ptr, ptr %5, align 8, !tbaa !6
  call void @png_init_io(ptr noundef %34, ptr noundef %35) #11
  %36 = load ptr, ptr %15, align 8, !tbaa !15
  call void @png_set_sig_bytes(ptr noundef %36, i32 noundef 8) #11
  %37 = load ptr, ptr %15, align 8, !tbaa !15
  %38 = load ptr, ptr %22, align 8, !tbaa !16
  call void @png_read_info(ptr noundef %37, ptr noundef %38) #11
  %39 = load ptr, ptr %15, align 8, !tbaa !15
  %40 = load ptr, ptr %22, align 8, !tbaa !16
  %41 = call zeroext i8 @png_get_bit_depth(ptr noundef %39, ptr noundef %40) #11
  %42 = zext i8 %41 to i32
  %43 = getelementptr inbounds nuw i8, ptr %1, i64 20
  store i32 %42, ptr %43, align 4, !tbaa !17
  %44 = load ptr, ptr %15, align 8, !tbaa !15
  %45 = load ptr, ptr %22, align 8, !tbaa !16
  %46 = call zeroext i8 @png_get_color_type(ptr noundef %44, ptr noundef %45) #11
  %47 = zext i8 %46 to i32
  %48 = getelementptr inbounds nuw i8, ptr %1, i64 16
  store i32 %47, ptr %48, align 8, !tbaa !18
  %49 = icmp eq i8 %46, 3
  br i1 %49, label %50, label %52

50:                                               ; preds = %33
  %51 = load ptr, ptr %15, align 8, !tbaa !15
  call void @png_set_palette_to_rgb(ptr noundef %51) #11
  %.pr = load i32, ptr %48, align 8, !tbaa !18
  br label %52

52:                                               ; preds = %50, %33
  %53 = phi i32 [ %.pr, %50 ], [ %47, %33 ]
  %54 = icmp eq i32 %53, 0
  br i1 %54, label %55, label %60

55:                                               ; preds = %52
  %56 = load i32, ptr %43, align 4, !tbaa !17
  %57 = icmp slt i32 %56, 8
  br i1 %57, label %58, label %60

58:                                               ; preds = %55
  %59 = load ptr, ptr %15, align 8, !tbaa !15
  call void @png_set_expand_gray_1_2_4_to_8(ptr noundef %59) #11
  store i32 8, ptr %43, align 4, !tbaa !17
  br label %60

60:                                               ; preds = %58, %55, %52
  %61 = load ptr, ptr %15, align 8, !tbaa !15
  call void @png_set_strip_alpha(ptr noundef %61) #11
  %62 = load i32, ptr %48, align 8, !tbaa !18
  switch i32 %62, label %65 [
    i32 0, label %63
    i32 4, label %63
  ]

63:                                               ; preds = %60, %60
  %64 = load ptr, ptr %15, align 8, !tbaa !15
  call void @png_set_gray_to_rgb(ptr noundef %64) #11
  br label %65

65:                                               ; preds = %60, %63
  %66 = load ptr, ptr %15, align 8, !tbaa !15
  %67 = load ptr, ptr %22, align 8, !tbaa !16
  call void @png_read_update_info(ptr noundef %66, ptr noundef %67) #11
  %68 = load ptr, ptr %15, align 8, !tbaa !15
  %69 = load ptr, ptr %22, align 8, !tbaa !16
  %70 = call i32 @png_get_image_width(ptr noundef %68, ptr noundef %69) #11
  %71 = getelementptr inbounds nuw i8, ptr %1, i64 8
  store i32 %70, ptr %71, align 8, !tbaa !19
  %72 = load ptr, ptr %15, align 8, !tbaa !15
  %73 = load ptr, ptr %22, align 8, !tbaa !16
  %74 = call i32 @png_get_image_height(ptr noundef %72, ptr noundef %73) #11
  %75 = getelementptr inbounds nuw i8, ptr %1, i64 12
  store i32 %74, ptr %75, align 4, !tbaa !20
  br label %76

76:                                               ; preds = %65, %30, %23, %16, %10
  %.1 = phi i32 [ 0, %10 ], [ 0, %30 ], [ 1, %65 ], [ 0, %23 ], [ 0, %16 ]
  call void @llvm.lifetime.end.p0(i64 8, ptr nonnull %3) #11
  br label %77

77:                                               ; preds = %2, %76
  %.0 = phi i32 [ %.1, %76 ], [ 0, %2 ]
  ret i32 %.0
}